Certificate:
    Data:
        Version: 3 (0x2)
        Serial Number:
            4c:9b:ec:95:d1:21:49:1d:5d:65:a7:1a:61:46:67:dd:42:18:65:46
        Signature Algorithm: sha256WithRSAEncryption
        Issuer: C=HU, ST=Hungary, O=coTURN, CN=CA/emailAddress=misi@majd.eu
        Validity
            Not Before: Mar  5 09:05:10 2020 GMT
            Not After : Jul  7 09:05:10 3019 GMT
        Subject: C=HU, ST=Hungary, O=coTURN, CN=CA/emailAddress=misi@majd.eu
        Subject Public Key Info:
            Public Key Algorithm: rsaEncryption
                RSA Public-Key: (2048 bit)
                Modulus:
                    00:d8:76:2a:59:44:73:da:25:38:93:54:d8:c5:2b:
                    11:bd:30:80:21:5f:47:95:7d:eb:5e:3e:98:0d:a7:
                    a8:30:8c:07:6d:1a:ee:89:c1:4c:cc:64:81:90:b3:
                    ab:54:1f:9b:72:23:c5:2f:0a:32:52:be:27:ad:2f:
                    51:ee:62:9e:ed:44:d0:ba:aa:72:67:03:a2:ee:a0:
                    e3:5d:9e:37:ec:ee:0b:29:59:e8:d8:d5:84:a1:6d:
                    36:5d:85:6b:0d:73:a0:32:fe:b6:fa:99:ef:8c:78:
                    a9:02:f4:3a:bd:13:bc:1a:9b:72:55:0b:e7:0c:ed:
                    68:00:c2:e7:78:4a:df:ce:14:2a:99:f1:de:97:16:
                    60:44:f1:fc:f8:74:e5:33:31:cc:f9:ff:5d:9e:c1:
                    c7:c6:21:75:48:08:26:f5:7c:f1:56:ec:15:c5:7f:
                    24:0f:08:03:74:e0:da:10:bf:3d:90:67:09:1e:b2:
                    3f:b4:f4:15:df:53:e8:68:e8:d1:28:8e:2d:37:f9:
                    e0:3a:a3:29:00:3d:0a:66:7c:71:ab:54:e5:da:fe:
                    44:18:3c:b4:be:c5:ce:49:26:8c:cc:ab:88:8f:b7:
                    e3:ad:5b:df:b2:d4:a3:f8:a9:06:4f:38:6e:b7:05:
                    b3:3a:bd:63:cd:f7:26:15:e0:98:fd:30:7e:d3:33:
                    56:8d
                Exponent: 65537 (0x10001)
        X509v3 extensions:
            X509v3 Subject Key Identifier: 
                1C:27:5E:40:39:8C:EC:71:C7:ED:E9:2A:56:C9:9E:DF:48:EA:82:42
            X509v3 Authority Key Identifier: 
                keyid:1C:27:5E:40:39:8C:EC:71:C7:ED:E9:2A:56:C9:9E:DF:48:EA:82:42

            X509v3 Basic Constraints: critical
                CA:TRUE
    Signature Algorithm: sha256WithRSAEncryption
         b4:d5:d9:7a:46:1e:1a:95:02:b5:7e:86:45:16:26:d5:8a:11:
         b9:34:98:58:df:cd:0c:d5:a5:f2:cc:24:1a:22:f4:c7:3e:50:
         39:40:f5:d6:e8:3b:9c:05:e9:f9:95:9b:c2:01:3b:69:d5:ba:
         4f:cf:7c:a6:7c:6e:f4:24:a3:d1:88:e2:29:60:ca:6d:b0:ee:
         a6:b8:d1:5f:49:d5:08:a6:c2:79:3a:3f:8a:63:ec:53:ef:48:
         00:8c:61:d2:0f:38:e0:00:ac:6d:a6:bf:ed:6a:42:c3:cf:4e:
         e3:0d:48:c5:a7:6d:5e:af:5a:e4:30:26:ba:19:2a:a5:57:da:
         ce:b7:b6:45:24:fb:36:b6:a3:6c:55:ca:9f:91:19:29:db:a4:
         22:d4:45:53:b9:79:6a:a7:5e:90:a3:4d:3b:c1:b6:2b:52:41:
         97:7d:9e:0c:cf:0a:5f:ce:0e:fe:bf:a9:e5:b7:60:17:f5:93:
         4b:b5:6d:2d:51:a6:c1:54:65:f9:e1:5c:21:8d:3d:19:0c:dc:
         2c:c9:17:40:65:15:d0:ad:98:06:a0:11:aa:87:b3:2d:03:29:
         37:24:f6:42:a8:d5:58:ae:55:20:c3:37:a3:62:33:36:34:73:
         98:bc:70:30:aa:33:b0:e4:86:b6:d9:22:79:1f:3f:68:6f:f5:
         66:75:e8:70
-----BEGIN CERTIFICATE-----
MIIDlzCCAn+gAwIBAgIUTJvsldEhSR1dZacaYUZn3UIYZUYwDQYJKoZIhvcNAQEL
BQAwWjELMAkGA1UEBhMCSFUxEDAOBgNVBAgMB0h1bmdhcnkxDzANBgNVBAoMBmNv
VFVSTjELMAkGA1UEAwwCQ0ExGzAZBgkqhkiG9w0BCQEWDG1pc2lAbWFqZC5ldTAg
Fw0yMDAzMDUwOTA1MTBaGA8zMDE5MDcwNzA5MDUxMFowWjELMAkGA1UEBhMCSFUx
EDAOBgNVBAgMB0h1bmdhcnkxDzANBgNVBAoMBmNvVFVSTjELMAkGA1UEAwwCQ0Ex
GzAZBgkqhkiG9w0BCQEWDG1pc2lAbWFqZC5ldTCCASIwDQYJKoZIhvcNAQEBBQAD
ggEPADCCAQoCggEBANh2KllEc9olOJNU2MUrEb0wgCFfR5V9614+mA2nqDCMB20a
7onBTMxkgZCzq1Qfm3IjxS8KMlK+J60vUe5inu1E0LqqcmcDou6g412eN+zuCylZ
6NjVhKFtNl2Faw1zoDL+tvqZ74x4qQL0Or0TvBqbclUL5wztaADC53hK384UKpnx
3pcWYETx/Ph05TMxzPn/XZ7Bx8YhdUgIJvV88VbsFcV/JA8IA3Tg2hC/PZBnCR6y
P7T0Fd9T6Gjo0SiOLTf54DqjKQA9CmZ8catU5dr+RBg8tL7FzkkmjMyriI+3461b
37LUo/ipBk84brcFszq9Y833JhXgmP0wftMzVo0CAwEAAaNTMFEwHQYDVR0OBBYE
FBwnXkA5jOxxx+3pKlbJnt9I6oJCMB8GA1UdIwQYMBaAFBwnXkA5jOxxx+3pKlbJ
nt9I6oJCMA8GA1UdEwEB/wQFMAMBAf8wDQYJKoZIhvcNAQELBQADggEBALTV2XpG
HhqVArV+hkUWJtWKEbk0mFjfzQzVpfLMJBoi9Mc+UDlA9dboO5wF6fmVm8IBO2nV
uk/PfKZ8bvQko9GI4ilgym2w7qa40V9J1Qimwnk6P4pj7FPvSACMYdIPOOAArG2m
v+1qQsPPTuMNSMWnbV6vWuQwJroZKqVX2s63tkUk+za2o2xVyp+RGSnbpCLURVO5
eWqnXpCjTTvBtitSQZd9ngzPCl/ODv6/qeW3YBf1k0u1bS1RpsFUZfnhXCGNPRkM
3CzJF0BlFdCtmAagEaqHsy0DKTck9kKo1ViuVSDDN6NiMzY0c5i8cDCqM7DkhrbZ
InkfP2hv9WZ16HA=
-----END CERTIFICATE-----
