Certificate:
    Data:
        Version: 3 (0x2)
        Serial Number:
            4c:9b:ec:95:d1:21:49:1d:5d:65:a7:1a:61:46:67:dd:42:18:65:48
        Signature Algorithm: sha256WithRSAEncryption
        Issuer: C=HU, ST=Hungary, O=coTURN, CN=CA/emailAddress=misi@majd.eu
        Validity
            Not Before: Mar  5 09:05:42 2020 GMT
            Not After : Mar  3 09:05:42 2030 GMT
        Subject: C=HU, ST=Hungary, L=Debrecen, O=coTURN, CN=Client/emailAddress=misi@majd.eu
        Subject Public Key Info:
            Public Key Algorithm: rsaEncryption
                RSA Public-Key: (2048 bit)
                Modulus:
                    00:af:6d:38:31:23:12:12:e7:5a:8d:ed:1c:02:7e:
                    bf:c2:ef:7a:d1:c0:b2:4b:b4:38:9b:a7:5d:dd:01:
                    2c:a0:e7:7c:5b:7a:4d:71:4b:c9:5b:77:e8:b3:4c:
                    92:5b:8c:43:57:b6:c9:8c:44:66:6a:9e:8c:f2:76:
                    58:a2:f5:38:a3:4f:ef:af:5a:c7:bf:e5:72:98:c0:
                    b8:2e:a1:75:cc:16:8b:bf:a3:6a:e6:fd:c9:25:35:
                    92:31:b2:78:2a:42:7b:a1:ce:25:be:32:45:6e:0b:
                    36:22:f8:6c:9c:f3:8f:bf:c8:8c:79:d5:59:02:f5:
                    de:1f:67:fc:ef:c7:27:88:a7:35:b1:d7:ee:dc:1c:
                    74:11:fc:3c:56:33:b5:e7:88:ce:f3:ce:db:b9:3c:
                    e0:eb:15:bc:00:5f:29:f4:9c:8e:4d:61:df:da:aa:
                    f4:fc:fb:e7:4b:75:dc:dc:cf:f0:4b:3b:67:cf:bf:
                    35:b8:0f:5b:20:94:60:dd:3b:e5:7a:ec:0e:30:2c:
                    c1:fb:f6:21:5b:ed:80:34:9d:59:5c:95:39:a2:61:
                    a4:13:fa:57:b9:f5:85:d4:a1:bf:91:cf:d7:dc:ac:
                    fa:32:47:ee:d2:86:9b:14:d1:35:88:1e:2d:9f:39:
                    74:86:de:f1:04:de:e1:39:2f:a8:91:bf:8b:f7:4f:
                    7c:e5
                Exponent: 65537 (0x10001)
        X509v3 extensions:
            X509v3 Subject Key Identifier: 
                32:BA:14:26:42:B6:5B:9E:3C:F1:53:1A:FD:DB:CB:FE:B1:A2:74:6C
            X509v3 Authority Key Identifier: 
                keyid:1C:27:5E:40:39:8C:EC:71:C7:ED:E9:2A:56:C9:9E:DF:48:EA:82:42

            X509v3 Basic Constraints: critical
                CA:TRUE
    Signature Algorithm: sha256WithRSAEncryption
         6b:93:56:56:81:fb:34:9e:15:2e:3e:b2:2c:73:72:60:f2:1a:
         a8:bf:c3:f0:c7:57:00:48:37:2a:1c:63:71:1b:29:f4:2b:dc:
         64:07:f8:72:80:65:18:c7:74:23:c1:02:00:d8:93:1d:4f:2b:
         8c:46:34:1e:d2:6a:5c:ab:8d:ff:a7:fe:e5:c2:bf:33:55:ea:
         2b:e2:70:e9:24:4c:4d:31:d4:dd:10:55:f5:bb:2c:a5:ec:f6:
         8f:7a:05:1c:6c:7d:cf:85:6b:29:a7:bd:fe:a2:bc:00:45:b8:
         ac:70:c7:c9:67:93:0a:5c:d7:52:a3:c9:fc:6c:ef:52:b2:6b:
         bc:5b:f9:e1:9b:27:07:39:28:28:7f:a0:70:62:af:4f:42:82:
         dd:ec:23:4d:fc:8e:19:51:87:cc:d0:29:d5:27:44:9c:fa:b5:
         51:ea:31:eb:51:84:3f:07:5b:c0:57:5d:2a:c7:15:ed:9c:46:
         ac:8e:14:8b:4d:82:0e:b4:6a:47:db:37:f3:03:08:86:b6:25:
         0b:92:6d:99:a9:99:45:4e:38:45:e0:a2:4e:e7:34:50:51:ab:
         f8:c8:ef:26:3d:7f:9f:8f:45:20:cf:f5:31:27:b6:00:3a:e0:
         4a:d5:62:9a:29:27:9b:aa:3a:95:56:1c:d7:65:15:ce:35:10:
         2a:7e:cc:b6
-----BEGIN CERTIFICATE-----
MIIDrDCCApSgAwIBAgIUTJvsldEhSR1dZacaYUZn3UIYZUgwDQYJKoZIhvcNAQEL
BQAwWjELMAkGA1UEBhMCSFUxEDAOBgNVBAgMB0h1bmdhcnkxDzANBgNVBAoMBmNv
VFVSTjELMAkGA1UEAwwCQ0ExGzAZBgkqhkiG9w0BCQEWDG1pc2lAbWFqZC5ldTAe
Fw0yMDAzMDUwOTA1NDJaFw0zMDAzMDMwOTA1NDJaMHExCzAJBgNVBAYTAkhVMRAw
DgYDVQQIDAdIdW5nYXJ5MREwDwYDVQQHDAhEZWJyZWNlbjEPMA0GA1UECgwGY29U
VVJOMQ8wDQYDVQQDDAZDbGllbnQxGzAZBgkqhkiG9w0BCQEWDG1pc2lAbWFqZC5l
dTCCASIwDQYJKoZIhvcNAQEBBQADggEPADCCAQoCggEBAK9tODEjEhLnWo3tHAJ+
v8LvetHAsku0OJunXd0BLKDnfFt6TXFLyVt36LNMkluMQ1e2yYxEZmqejPJ2WKL1
OKNP769ax7/lcpjAuC6hdcwWi7+jaub9ySU1kjGyeCpCe6HOJb4yRW4LNiL4bJzz
j7/IjHnVWQL13h9n/O/HJ4inNbHX7twcdBH8PFYzteeIzvPO27k84OsVvABfKfSc
jk1h39qq9Pz750t13NzP8Es7Z8+/NbgPWyCUYN075XrsDjAswfv2IVvtgDSdWVyV
OaJhpBP6V7n1hdShv5HP19ys+jJH7tKGmxTRNYgeLZ85dIbe8QTe4TkvqJG/i/dP
fOUCAwEAAaNTMFEwHQYDVR0OBBYEFDK6FCZCtluePPFTGv3by/6xonRsMB8GA1Ud
IwQYMBaAFBwnXkA5jOxxx+3pKlbJnt9I6oJCMA8GA1UdEwEB/wQFMAMBAf8wDQYJ
KoZIhvcNAQELBQADggEBAGuTVlaB+zSeFS4+sixzcmDyGqi/w/DHVwBINyocY3Eb
KfQr3GQH+HKAZRjHdCPBAgDYkx1PK4xGNB7Salyrjf+n/uXCvzNV6ivicOkkTE0x
1N0QVfW7LKXs9o96BRxsfc+Faymnvf6ivABFuKxwx8lnkwpc11Kjyfxs71Kya7xb
+eGbJwc5KCh/oHBir09Cgt3sI038jhlRh8zQKdUnRJz6tVHqMetRhD8HW8BXXSrH
Fe2cRqyOFItNgg60akfbN/MDCIa2JQuSbZmpmUVOOEXgok7nNFBRq/jI7yY9f5+P
RSDP9TEntgA64ErVYpopJ5uqOpVWHNdlFc41ECp+zLY=
-----END CERTIFICATE-----
