Certificate:
    Data:
        Version: 3 (0x2)
        Serial Number:
            4c:9b:ec:95:d1:21:49:1d:5d:65:a7:1a:61:46:67:dd:42:18:65:47
        Signature Algorithm: sha256WithRSAEncryption
        Issuer: C=HU, ST=Hungary, O=coTURN, CN=CA/emailAddress=misi@majd.eu
        Validity
            Not Before: Mar  5 09:05:21 2020 GMT
            Not After : Mar  3 09:05:21 2030 GMT
        Subject: C=HU, ST=Hungary, L=Debrecen, O=coTURN, CN=Server/emailAddress=misi@majd.eu
        Subject Public Key Info:
            Public Key Algorithm: rsaEncryption
                RSA Public-Key: (2048 bit)
                Modulus:
                    00:bc:db:f7:17:35:17:7c:46:79:64:89:61:5f:ac:
                    cf:8f:6d:97:13:87:8a:d6:f1:ab:df:f6:69:4e:04:
                    57:c1:4d:6c:3d:77:c9:50:0d:3d:b6:89:cd:ac:00:
                    b5:02:45:e4:4c:78:ef:6f:18:7e:57:4e:bc:62:4d:
                    f6:de:6c:c8:77:ea:c5:b2:b4:65:2d:46:76:bf:5e:
                    5f:f8:45:78:55:f4:4d:20:ac:91:f0:4f:23:cb:5d:
                    40:29:44:de:9c:f7:0a:e6:48:a4:80:35:dd:cb:e8:
                    02:90:59:f7:31:f9:4c:50:fe:98:ef:dd:7f:60:51:
                    2d:44:0a:14:a2:57:96:51:36:3f:73:66:db:45:5f:
                    bd:9d:f4:82:3a:ce:ab:75:4f:d0:90:6d:43:d1:7b:
                    2f:77:31:88:db:2f:4a:a9:4e:62:39:c7:14:7f:39:
                    ef:e2:08:b7:18:a7:6c:f8:d9:35:d5:a3:f8:64:f5:
                    02:51:22:1b:8e:7a:c5:44:ae:df:b1:17:0b:71:df:
                    09:82:89:49:70:c5:9b:a0:f3:3c:02:48:75:e7:81:
                    f9:24:51:56:24:3b:ff:b8:68:d3:13:2e:a2:f4:d1:
                    70:33:a9:7a:d6:17:fd:ca:a5:6b:13:74:c9:ce:b6:
                    26:4f:01:ff:eb:ba:b5:f9:a1:70:80:da:11:df:a3:
                    7b:4f
                Exponent: 65537 (0x10001)
        X509v3 extensions:
            X509v3 Subject Key Identifier: 
                38:C1:E5:77:D3:01:6B:7A:A7:D8:18:6B:50:D6:FA:0E:D6:D9:B4:4F
            X509v3 Authority Key Identifier: 
                keyid:1C:27:5E:40:39:8C:EC:71:C7:ED:E9:2A:56:C9:9E:DF:48:EA:82:42

            X509v3 Basic Constraints: critical
                CA:TRUE
    Signature Algorithm: sha256WithRSAEncryption
         a3:37:55:68:68:02:9f:af:d6:b1:38:b3:d8:bf:30:27:33:6f:
         21:4c:09:ee:cf:24:d2:eb:cf:1c:7a:15:98:6d:10:94:e0:4a:
         1f:88:5c:43:90:09:78:c1:a6:82:06:16:f2:8c:d1:3a:c5:3b:
         99:67:35:3c:00:bf:9f:a2:6a:e7:33:85:83:88:72:88:e4:d2:
         83:1c:6c:49:92:5f:51:80:0d:92:0f:99:4d:cb:2a:18:4d:68:
         b7:b6:d1:de:54:22:71:88:8d:04:45:c5:13:34:8d:52:7a:f7:
         2a:e7:cb:b2:41:20:7b:ef:aa:d0:58:93:b5:e6:b5:fa:8b:22:
         a3:ed:a7:81:9b:ca:50:f7:d0:bd:5f:f2:52:6d:8b:af:af:64:
         36:9d:6d:81:ce:50:29:b7:db:d0:ac:a3:1d:78:77:90:29:a3:
         84:10:69:13:e9:47:fc:e1:1e:c2:74:55:61:11:65:2d:77:e1:
         ca:9f:2d:6f:2f:76:f6:69:bc:09:50:9a:b0:48:05:a2:53:e6:
         93:46:81:0d:04:8b:cd:fb:a4:a7:82:08:78:f9:87:dc:0a:07:
         91:1f:de:09:fa:00:5a:16:1a:2b:5c:83:10:03:33:2f:ad:8c:
         9a:eb:94:0f:77:b1:9b:ec:e6:0e:dc:84:dd:35:3f:b5:8a:d2:
         06:0e:88:d7
-----BEGIN CERTIFICATE-----
MIIDrDCCApSgAwIBAgIUTJvsldEhSR1dZacaYUZn3UIYZUcwDQYJKoZIhvcNAQEL
BQAwWjELMAkGA1UEBhMCSFUxEDAOBgNVBAgMB0h1bmdhcnkxDzANBgNVBAoMBmNv
VFVSTjELMAkGA1UEAwwCQ0ExGzAZBgkqhkiG9w0BCQEWDG1pc2lAbWFqZC5ldTAe
Fw0yMDAzMDUwOTA1MjFaFw0zMDAzMDMwOTA1MjFaMHExCzAJBgNVBAYTAkhVMRAw
DgYDVQQIDAdIdW5nYXJ5MREwDwYDVQQHDAhEZWJyZWNlbjEPMA0GA1UECgwGY29U
VVJOMQ8wDQYDVQQDDAZTZXJ2ZXIxGzAZBgkqhkiG9w0BCQEWDG1pc2lAbWFqZC5l
dTCCASIwDQYJKoZIhvcNAQEBBQADggEPADCCAQoCggEBALzb9xc1F3xGeWSJYV+s
z49tlxOHitbxq9/2aU4EV8FNbD13yVANPbaJzawAtQJF5Ex4728YfldOvGJN9t5s
yHfqxbK0ZS1Gdr9eX/hFeFX0TSCskfBPI8tdQClE3pz3CuZIpIA13cvoApBZ9zH5
TFD+mO/df2BRLUQKFKJXllE2P3Nm20VfvZ30gjrOq3VP0JBtQ9F7L3cxiNsvSqlO
YjnHFH857+IItxinbPjZNdWj+GT1AlEiG456xUSu37EXC3HfCYKJSXDFm6DzPAJI
deeB+SRRViQ7/7ho0xMuovTRcDOpetYX/cqlaxN0yc62Jk8B/+u6tfmhcIDaEd+j
e08CAwEAAaNTMFEwHQYDVR0OBBYEFDjB5XfTAWt6p9gYa1DW+g7W2bRPMB8GA1Ud
IwQYMBaAFBwnXkA5jOxxx+3pKlbJnt9I6oJCMA8GA1UdEwEB/wQFMAMBAf8wDQYJ
KoZIhvcNAQELBQADggEBAKM3VWhoAp+v1rE4s9i/MCczbyFMCe7PJNLrzxx6FZht
EJTgSh+IXEOQCXjBpoIGFvKM0TrFO5lnNTwAv5+iauczhYOIcojk0oMcbEmSX1GA
DZIPmU3LKhhNaLe20d5UInGIjQRFxRM0jVJ69yrny7JBIHvvqtBYk7XmtfqLIqPt
p4GbylD30L1f8lJti6+vZDadbYHOUCm329Csox14d5Apo4QQaRPpR/zhHsJ0VWER
ZS134cqfLW8vdvZpvAlQmrBIBaJT5pNGgQ0Ei837pKeCCHj5h9wKB5Ef3gn6AFoW
GitcgxADMy+tjJrrlA93sZvs5g7chN01P7WK0gYOiNc=
-----END CERTIFICATE-----
